target datalayout = "e-m:e-p270:32:32-p271:32:32-p272:64:64-i64:64-i128:128-f80:128-n8:16:32:64-S128"
target triple = "x86_64-pc-linux-gnu"

%"class.base::File" = type <{ %"class.base::ScopedGeneric", [4 x i8], %"class.base::FilePath", [4 x i8], i32, i8, i8, [6 x i8] }>
%"class.base::ScopedGeneric" = type { %"struct.base::ScopedGeneric<int, base::internal::ScopedFDCloseTraits>::Data" }
%"struct.base::ScopedGeneric<int, base::internal::ScopedFDCloseTraits>::Data" = type { i32 }
%"class.base::FilePath" = type { %"class.std::__cxx11::basic_string" }
%"class.std::__cxx11::basic_string" = type { %"struct.std::__cxx11::basic_string<char>::_Alloc_hider", i64, %union.anon }
%"struct.std::__cxx11::basic_string<char>::_Alloc_hider" = type { ptr }
%union.anon = type { i64, [8 x i8] }

; Function Attrs: mustprogress uwtable
define linkonce_odr void @_ZN4base13ScopedGenericIiNS_8internal19ScopedFDCloseTraitsEE15FreeIfNecessaryEv(ptr noundef nonnull align 4 dereferenceable(4) %0) #0 comdat align 2 {
  %2 = alloca ptr, align 8
  store ptr %0, ptr %2, align 8, !tbaa !36
  %3 = load ptr, ptr %2, align 8
  %4 = getelementptr inbounds nuw %"class.base::ScopedGeneric", ptr %3, i32 0, i32 0
  %5 = getelementptr inbounds nuw %"struct.base::ScopedGeneric<int, base::internal::ScopedFDCloseTraits>::Data", ptr %4, i32 0, i32 0
  %6 = load i32, ptr %5, align 4, !tbaa !38
  %7 = call noundef i32 @_ZN4base8internal19ScopedFDCloseTraits12InvalidValueEv()
  %8 = icmp ne i32 %6, %7
  br i1 %8, label %9, label %16

9:                                                ; preds = %1
  %10 = getelementptr inbounds nuw %"class.base::ScopedGeneric", ptr %3, i32 0, i32 0
  %11 = getelementptr inbounds nuw %"struct.base::ScopedGeneric<int, base::internal::ScopedFDCloseTraits>::Data", ptr %10, i32 0, i32 0
  %12 = load i32, ptr %11, align 4, !tbaa !38
  call void @_ZN4base8internal19ScopedFDCloseTraits4FreeEi(i32 noundef %12)
  %13 = call noundef i32 @_ZN4base8internal19ScopedFDCloseTraits12InvalidValueEv()
  %14 = getelementptr inbounds nuw %"class.base::ScopedGeneric", ptr %3, i32 0, i32 0
  %15 = getelementptr inbounds nuw %"struct.base::ScopedGeneric<int, base::internal::ScopedFDCloseTraits>::Data", ptr %14, i32 0, i32 0
  store i32 %13, ptr %15, align 4, !tbaa !38
  br label %16

16:                                               ; preds = %9, %1
  ret void
}

; Function Attrs: mustprogress nounwind uwtable
define linkonce_odr noundef i32 @_ZN4base8internal19ScopedFDCloseTraits12InvalidValueEv() #4 comdat align 2 {
  ret i32 -1
}

; Function Attrs: noinline noreturn nounwind uwtable
define linkonce_odr hidden void @__clang_call_terminate(ptr noundef %0) #7 comdat {
  %2 = call ptr @__cxa_begin_catch(ptr %0) #14
  call void @_ZSt9terminatev() #15
  unreachable
}

; Function Attrs: mustprogress nounwind uwtable
define available_externally noundef ptr @_ZNKSt7__cxx1112basic_stringIcSt11char_traitsIcESaIcEE7_M_dataEv(ptr noundef nonnull align 8 dereferenceable(32) %0) #4 align 2 {
  %2 = alloca ptr, align 8
  store ptr %0, ptr %2, align 8, !tbaa !92
  %3 = load ptr, ptr %2, align 8
  %4 = getelementptr inbounds nuw %"class.std::__cxx11::basic_string", ptr %3, i32 0, i32 0
  %5 = getelementptr inbounds nuw %"struct.std::__cxx11::basic_string<char>::_Alloc_hider", ptr %4, i32 0, i32 0
  %6 = load ptr, ptr %5, align 8, !tbaa !105
  ret ptr %6
}

; Function Attrs: mustprogress uwtable
define linkonce_odr void @_ZN4base13ScopedGenericIiNS_8internal19ScopedFDCloseTraitsEE5resetERKi(ptr noundef nonnull align 4 dereferenceable(4) %0, ptr noundef nonnull align 4 dereferenceable(4) %1) #0 comdat align 2 {
  %3 = alloca ptr, align 8
  %4 = alloca ptr, align 8
  store ptr %0, ptr %3, align 8, !tbaa !36
  store ptr %1, ptr %4, align 8, !tbaa !42
  %5 = load ptr, ptr %3, align 8
  %6 = getelementptr inbounds nuw %"class.base::ScopedGeneric", ptr %5, i32 0, i32 0
  %7 = getelementptr inbounds nuw %"struct.base::ScopedGeneric<int, base::internal::ScopedFDCloseTraits>::Data", ptr %6, i32 0, i32 0
  %8 = load i32, ptr %7, align 4, !tbaa !38
  %9 = call noundef i32 @_ZN4base8internal19ScopedFDCloseTraits12InvalidValueEv()
  %10 = icmp ne i32 %8, %9
  br i1 %10, label %11, label %19

11:                                               ; preds = %2
  %12 = getelementptr inbounds nuw %"class.base::ScopedGeneric", ptr %5, i32 0, i32 0
  %13 = getelementptr inbounds nuw %"struct.base::ScopedGeneric<int, base::internal::ScopedFDCloseTraits>::Data", ptr %12, i32 0, i32 0
  %14 = load i32, ptr %13, align 4, !tbaa !38
  %15 = load ptr, ptr %4, align 8, !tbaa !42
  %16 = load i32, ptr %15, align 4, !tbaa !41
  %17 = icmp eq i32 %14, %16
  br i1 %17, label %18, label %19

18:                                               ; preds = %11
  call void @abort() #15
  unreachable

19:                                               ; preds = %11, %2
  call void @_ZN4base13ScopedGenericIiNS_8internal19ScopedFDCloseTraitsEE15FreeIfNecessaryEv(ptr noundef nonnull align 4 dereferenceable(4) %5)
  %20 = load ptr, ptr %4, align 8, !tbaa !42
  %21 = load i32, ptr %20, align 4, !tbaa !41
  %22 = getelementptr inbounds nuw %"class.base::ScopedGeneric", ptr %5, i32 0, i32 0
  %23 = getelementptr inbounds nuw %"struct.base::ScopedGeneric<int, base::internal::ScopedFDCloseTraits>::Data", ptr %22, i32 0, i32 0
  store i32 %21, ptr %23, align 4, !tbaa !38
  ret void
}

; Function Attrs: mustprogress nounwind uwtable
define available_externally noundef ptr @_ZNKSt7__cxx1112basic_stringIcSt11char_traitsIcESaIcEE5c_strEv(ptr noundef nonnull align 8 dereferenceable(32) %0) #4 align 2 personality ptr @__gxx_personality_v0 {
  %2 = alloca ptr, align 8
  store ptr %0, ptr %2, align 8, !tbaa !92
  %3 = load ptr, ptr %2, align 8
  %4 = invoke noundef ptr @_ZNKSt7__cxx1112basic_stringIcSt11char_traitsIcESaIcEE7_M_dataEv(ptr noundef nonnull align 8 dereferenceable(32) %3)
          to label %5 unwind label %6

5:                                                ; preds = %1
  ret ptr %4

6:                                                ; preds = %1
  %7 = landingpad { ptr, i32 }
          catch ptr null
  %8 = extractvalue { ptr, i32 } %7, 0
  call void @__clang_call_terminate(ptr %8) #15
  unreachable
}

; Function Attrs: mustprogress nounwind uwtable
define linkonce_odr noundef nonnull align 8 dereferenceable(32) ptr @_ZNK4base8FilePath5valueB5cxx11Ev(ptr noundef nonnull align 8 dereferenceable(32) %0) #4 comdat align 2 {
  %2 = alloca ptr, align 8
  store ptr %0, ptr %2, align 8, !tbaa !94
  %3 = load ptr, ptr %2, align 8
  %4 = getelementptr inbounds nuw %"class.base::FilePath", ptr %3, i32 0, i32 0
  ret ptr %4
}

; Function Attrs: mustprogress nounwind uwtable
define linkonce_odr void @_ZN4base18ThreadRestrictions15AssertIOAllowedEv() #4 comdat align 2 {
  ret void
}

; Function Attrs: mustprogress uwtable
define void @_ZN4base4File12DoInitializeERKNS_8FilePathEj(ptr noundef nonnull align 8 dereferenceable(50) %0, ptr noundef nonnull align 8 dereferenceable(32) %1, i32 noundef %2) #0 align 2 {
  %4 = alloca ptr, align 8
  %5 = alloca ptr, align 8
  %6 = alloca i32, align 4
  %7 = alloca i32, align 4
  %8 = alloca i32, align 4
  %9 = alloca i32, align 4
  %10 = alloca i32, align 4
  %11 = alloca i32, align 4
  %12 = alloca i32, align 4
  %13 = alloca i32, align 4
  %14 = alloca i32, align 4
  store ptr %0, ptr %4, align 8, !tbaa !34
  store ptr %1, ptr %5, align 8, !tbaa !94
  store i32 %2, ptr %6, align 4, !tbaa !41
  %15 = load ptr, ptr %4, align 8
  call void @_ZN4base18ThreadRestrictions15AssertIOAllowedEv()
  call void @llvm.lifetime.start.p0(i64 4, ptr %7) #14
  store i32 0, ptr %7, align 4, !tbaa !41
  %16 = load i32, ptr %6, align 4, !tbaa !41
  %17 = and i32 %16, 2
  %18 = icmp ne i32 %17, 0
  br i1 %18, label %19, label %20

19:                                               ; preds = %3
  store i32 192, ptr %7, align 4, !tbaa !41
  br label %20

20:                                               ; preds = %19, %3
  %21 = getelementptr inbounds nuw %"class.base::File", ptr %15, i32 0, i32 5
  store i8 0, ptr %21, align 8, !tbaa !96
  %22 = load i32, ptr %6, align 4, !tbaa !41
  %23 = and i32 %22, 8
  %24 = icmp ne i32 %23, 0
  br i1 %24, label %25, label %26

25:                                               ; preds = %20
  store i32 576, ptr %7, align 4, !tbaa !41
  br label %26

26:                                               ; preds = %25, %20
  %27 = load i32, ptr %6, align 4, !tbaa !41
  %28 = and i32 %27, 16
  %29 = icmp ne i32 %28, 0
  br i1 %29, label %30, label %31

30:                                               ; preds = %26
  store i32 512, ptr %7, align 4, !tbaa !41
  br label %31

31:                                               ; preds = %30, %26
  %32 = load i32, ptr %7, align 4, !tbaa !41
  %33 = icmp ne i32 %32, 0
  br i1 %33, label %45, label %34

34:                                               ; preds = %31
  %35 = load i32, ptr %6, align 4, !tbaa !41
  %36 = and i32 %35, 1
  %37 = icmp ne i32 %36, 0
  br i1 %37, label %45, label %38

38:                                               ; preds = %34
  %39 = load i32, ptr %6, align 4, !tbaa !41
  %40 = and i32 %39, 4
  %41 = icmp ne i32 %40, 0
  br i1 %41, label %45, label %42

42:                                               ; preds = %38
  %43 = call ptr @__errno_location() #16
  store i32 95, ptr %43, align 4, !tbaa !41
  %44 = getelementptr inbounds nuw %"class.base::File", ptr %15, i32 0, i32 4
  store i32 -1, ptr %44, align 4, !tbaa !97
  store i32 1, ptr %8, align 4
  br label %205

45:                                               ; preds = %38, %34, %31
  %46 = load i32, ptr %6, align 4, !tbaa !41
  %47 = and i32 %46, 64
  %48 = icmp ne i32 %47, 0
  br i1 %48, label %49, label %56

49:                                               ; preds = %45
  %50 = load i32, ptr %6, align 4, !tbaa !41
  %51 = and i32 %50, 32
  %52 = icmp ne i32 %51, 0
  br i1 %52, label %53, label %56

53:                                               ; preds = %49
  %54 = load i32, ptr %7, align 4, !tbaa !41
  %55 = or i32 %54, 2
  store i32 %55, ptr %7, align 4, !tbaa !41
  br label %82

56:                                               ; preds = %49, %45
  %57 = load i32, ptr %6, align 4, !tbaa !41
  %58 = and i32 %57, 64
  %59 = icmp ne i32 %58, 0
  br i1 %59, label %60, label %63

60:                                               ; preds = %56
  %61 = load i32, ptr %7, align 4, !tbaa !41
  %62 = or i32 %61, 1
  store i32 %62, ptr %7, align 4, !tbaa !41
  br label %81

63:                                               ; preds = %56
  %64 = load i32, ptr %6, align 4, !tbaa !41
  %65 = and i32 %64, 32
  %66 = icmp ne i32 %65, 0
  br i1 %66, label %80, label %67

67:                                               ; preds = %63
  %68 = load i32, ptr %6, align 4, !tbaa !41
  %69 = and i32 %68, 16384
  %70 = icmp ne i32 %69, 0
  br i1 %70, label %80, label %71

71:                                               ; preds = %67
  %72 = load i32, ptr %6, align 4, !tbaa !41
  %73 = and i32 %72, 128
  %74 = icmp ne i32 %73, 0
  br i1 %74, label %80, label %75

75:                                               ; preds = %71
  %76 = load i32, ptr %6, align 4, !tbaa !41
  %77 = and i32 %76, 4
  %78 = icmp ne i32 %77, 0
  br i1 %78, label %80, label %79

79:                                               ; preds = %75
  br label %80

80:                                               ; preds = %79, %75, %71, %67, %63
  br label %81

81:                                               ; preds = %80, %60
  br label %82

82:                                               ; preds = %81, %53
  %83 = load i32, ptr %6, align 4, !tbaa !41
  %84 = and i32 %83, 65536
  %85 = icmp ne i32 %84, 0
  br i1 %85, label %86, label %89

86:                                               ; preds = %82
  %87 = load i32, ptr %7, align 4, !tbaa !41
  %88 = or i32 %87, 2304
  store i32 %88, ptr %7, align 4, !tbaa !41
  br label %89

89:                                               ; preds = %86, %82
  %90 = load i32, ptr %6, align 4, !tbaa !41
  %91 = and i32 %90, 128
  %92 = icmp ne i32 %91, 0
  br i1 %92, label %93, label %100

93:                                               ; preds = %89
  %94 = load i32, ptr %6, align 4, !tbaa !41
  %95 = and i32 %94, 32
  %96 = icmp ne i32 %95, 0
  br i1 %96, label %97, label %100

97:                                               ; preds = %93
  %98 = load i32, ptr %7, align 4, !tbaa !41
  %99 = or i32 %98, 1026
  store i32 %99, ptr %7, align 4, !tbaa !41
  br label %108

100:                                              ; preds = %93, %89
  %101 = load i32, ptr %6, align 4, !tbaa !41
  %102 = and i32 %101, 128
  %103 = icmp ne i32 %102, 0
  br i1 %103, label %104, label %107

104:                                              ; preds = %100
  %105 = load i32, ptr %7, align 4, !tbaa !41
  %106 = or i32 %105, 1025
  store i32 %106, ptr %7, align 4, !tbaa !41
  br label %107

107:                                              ; preds = %104, %100
  br label %108

108:                                              ; preds = %107, %97
  call void @llvm.lifetime.start.p0(i64 4, ptr %9) #14
  store i32 384, ptr %9, align 4, !tbaa !41
  call void @llvm.lifetime.start.p0(i64 4, ptr %10) #14
  call void @llvm.lifetime.start.p0(i64 4, ptr %11) #14
  br label %109

109:                                              ; preds = %123, %108
  %110 = load ptr, ptr %5, align 8, !tbaa !94
  %111 = call noundef nonnull align 8 dereferenceable(32) ptr @_ZNK4base8FilePath5valueB5cxx11Ev(ptr noundef nonnull align 8 dereferenceable(32) %110)
  %112 = call noundef ptr @_ZNKSt7__cxx1112basic_stringIcSt11char_traitsIcESaIcEE5c_strEv(ptr noundef nonnull align 8 dereferenceable(32) %111) #14
  %113 = load i32, ptr %7, align 4, !tbaa !41
  %114 = load i32, ptr %9, align 4, !tbaa !41
  %115 = call i32 (ptr, i32, ...) @open(ptr noundef %112, i32 noundef %113, i32 noundef %114)
  store i32 %115, ptr %11, align 4, !tbaa !41
  br label %116

116:                                              ; preds = %109
  %117 = load i32, ptr %11, align 4, !tbaa !41
  %118 = icmp eq i32 %117, -1
  br i1 %118, label %119, label %123

119:                                              ; preds = %116
  %120 = call ptr @__errno_location() #16
  %121 = load i32, ptr %120, align 4, !tbaa !41
  %122 = icmp eq i32 %121, 4
  br label %123

123:                                              ; preds = %119, %116
  %124 = phi i1 [ false, %116 ], [ %122, %119 ]
  br i1 %124, label %109, label %125, !llvm.loop !98

125:                                              ; preds = %123
  %126 = load i32, ptr %11, align 4, !tbaa !41
  store i32 %126, ptr %12, align 4, !tbaa !41
  call void @llvm.lifetime.end.p0(i64 4, ptr %11) #14
  %127 = load i32, ptr %12, align 4, !tbaa !41
  store i32 %127, ptr %10, align 4, !tbaa !41
  %128 = load i32, ptr %6, align 4, !tbaa !41
  %129 = and i32 %128, 4
  %130 = icmp ne i32 %129, 0
  br i1 %130, label %131, label %173

131:                                              ; preds = %125
  %132 = load i32, ptr %10, align 4, !tbaa !41
  %133 = icmp slt i32 %132, 0
  br i1 %133, label %134, label %172

134:                                              ; preds = %131
  %135 = load i32, ptr %7, align 4, !tbaa !41
  %136 = or i32 %135, 64
  store i32 %136, ptr %7, align 4, !tbaa !41
  %137 = load i32, ptr %6, align 4, !tbaa !41
  %138 = and i32 %137, 256
  %139 = icmp ne i32 %138, 0
  br i1 %139, label %144, label %140

140:                                              ; preds = %134
  %141 = load i32, ptr %6, align 4, !tbaa !41
  %142 = and i32 %141, 512
  %143 = icmp ne i32 %142, 0
  br i1 %143, label %144, label %147

144:                                              ; preds = %140, %134
  %145 = load i32, ptr %7, align 4, !tbaa !41
  %146 = or i32 %145, 128
  store i32 %146, ptr %7, align 4, !tbaa !41
  br label %147

147:                                              ; preds = %144, %140
  call void @llvm.lifetime.start.p0(i64 4, ptr %13) #14
  br label %148

148:                                              ; preds = %162, %147
  %149 = load ptr, ptr %5, align 8, !tbaa !94
  %150 = call noundef nonnull align 8 dereferenceable(32) ptr @_ZNK4base8FilePath5valueB5cxx11Ev(ptr noundef nonnull align 8 dereferenceable(32) %149)
  %151 = call noundef ptr @_ZNKSt7__cxx1112basic_stringIcSt11char_traitsIcESaIcEE5c_strEv(ptr noundef nonnull align 8 dereferenceable(32) %150) #14
  %152 = load i32, ptr %7, align 4, !tbaa !41
  %153 = load i32, ptr %9, align 4, !tbaa !41
  %154 = call i32 (ptr, i32, ...) @open(ptr noundef %151, i32 noundef %152, i32 noundef %153)
  store i32 %154, ptr %13, align 4, !tbaa !41
  br label %155

155:                                              ; preds = %148
  %156 = load i32, ptr %13, align 4, !tbaa !41
  %157 = icmp eq i32 %156, -1
  br i1 %157, label %158, label %162

158:                                              ; preds = %155
  %159 = call ptr @__errno_location() #16
  %160 = load i32, ptr %159, align 4, !tbaa !41
  %161 = icmp eq i32 %160, 4
  br label %162

162:                                              ; preds = %158, %155
  %163 = phi i1 [ false, %155 ], [ %161, %158 ]
  br i1 %163, label %148, label %164, !llvm.loop !99

164:                                              ; preds = %162
  %165 = load i32, ptr %13, align 4, !tbaa !41
  store i32 %165, ptr %14, align 4, !tbaa !41
  call void @llvm.lifetime.end.p0(i64 4, ptr %13) #14
  %166 = load i32, ptr %14, align 4, !tbaa !41
  store i32 %166, ptr %10, align 4, !tbaa !41
  %167 = load i32, ptr %10, align 4, !tbaa !41
  %168 = icmp sge i32 %167, 0
  br i1 %168, label %169, label %171

169:                                              ; preds = %164
  %170 = getelementptr inbounds nuw %"class.base::File", ptr %15, i32 0, i32 5
  store i8 1, ptr %170, align 8, !tbaa !96
  br label %171

171:                                              ; preds = %169, %164
  br label %172

172:                                              ; preds = %171, %131
  br label %173

173:                                              ; preds = %172, %125
  %174 = load i32, ptr %10, align 4, !tbaa !41
  %175 = icmp slt i32 %174, 0
  br i1 %175, label %176, label %181

176:                                              ; preds = %173
  %177 = call ptr @__errno_location() #16
  %178 = load i32, ptr %177, align 4, !tbaa !41
  %179 = call noundef i32 @_ZN4base4File18OSErrorToFileErrorEi(i32 noundef %178)
  %180 = getelementptr inbounds nuw %"class.base::File", ptr %15, i32 0, i32 4
  store i32 %179, ptr %180, align 4, !tbaa !97
  store i32 1, ptr %8, align 4
  br label %204

181:                                              ; preds = %173
  %182 = load i32, ptr %6, align 4, !tbaa !41
  %183 = and i32 %182, 10
  %184 = icmp ne i32 %183, 0
  br i1 %184, label %185, label %187

185:                                              ; preds = %181
  %186 = getelementptr inbounds nuw %"class.base::File", ptr %15, i32 0, i32 5
  store i8 1, ptr %186, align 8, !tbaa !96
  br label %187

187:                                              ; preds = %185, %181
  %188 = load i32, ptr %6, align 4, !tbaa !41
  %189 = and i32 %188, 8192
  %190 = icmp ne i32 %189, 0
  br i1 %190, label %191, label %196

191:                                              ; preds = %187
  %192 = load ptr, ptr %5, align 8, !tbaa !94
  %193 = call noundef nonnull align 8 dereferenceable(32) ptr @_ZNK4base8FilePath5valueB5cxx11Ev(ptr noundef nonnull align 8 dereferenceable(32) %192)
  %194 = call noundef ptr @_ZNKSt7__cxx1112basic_stringIcSt11char_traitsIcESaIcEE5c_strEv(ptr noundef nonnull align 8 dereferenceable(32) %193) #14
  %195 = call i32 @unlink(ptr noundef %194) #14
  br label %196

196:                                              ; preds = %191, %187
  %197 = load i32, ptr %6, align 4, !tbaa !41
  %198 = and i32 %197, 1024
  %199 = icmp eq i32 %198, 1024
  %200 = getelementptr inbounds nuw %"class.base::File", ptr %15, i32 0, i32 6
  %201 = zext i1 %199 to i8
  store i8 %201, ptr %200, align 1, !tbaa !79
  %202 = getelementptr inbounds nuw %"class.base::File", ptr %15, i32 0, i32 4
  store i32 0, ptr %202, align 4, !tbaa !97
  %203 = getelementptr inbounds nuw %"class.base::File", ptr %15, i32 0, i32 0
  call void @_ZN4base13ScopedGenericIiNS_8internal19ScopedFDCloseTraitsEE5resetERKi(ptr noundef nonnull align 4 dereferenceable(4) %203, ptr noundef nonnull align 4 dereferenceable(4) %10)
  store i32 0, ptr %8, align 4
  br label %204

204:                                              ; preds = %196, %176
  call void @llvm.lifetime.end.p0(i64 4, ptr %10) #14
  call void @llvm.lifetime.end.p0(i64 4, ptr %9) #14
  br label %205

205:                                              ; preds = %204, %42
  call void @llvm.lifetime.end.p0(i64 4, ptr %7) #14
  %206 = load i32, ptr %8, align 4
  switch i32 %206, label %208 [
    i32 0, label %207
    i32 1, label %207
  ]

207:                                              ; preds = %205, %205
  ret void

208:                                              ; preds = %205
  unreachable
}