; Function Attrs: mustprogress uwtable
define void @_ZN4base4File12DoInitializeERKNS_8FilePathEj(ptr noundef nonnull align 8 captures(none) dereferenceable(50) initializes((48, 49)) %0, ptr noundef nonnull readonly align 8 captures(none) dereferenceable(32) %1, i32 noundef %2) local_unnamed_addr #0 align 2 personality ptr @__gxx_personality_v0 {
  %4 = and i32 %2, 2
  %.not = icmp eq i32 %4, 0
  %spec.store.select = select i1 %.not, i32 0, i32 192
  %5 = getelementptr inbounds nuw i8, ptr %0, i64 48
  store i8 0, ptr %5, align 8, !tbaa !66
  %6 = and i32 %2, 8
  %.not42 = icmp eq i32 %6, 0
  %spec.select = select i1 %.not42, i32 %spec.store.select, i32 576
  %7 = and i32 %2, 16
  %.not43 = icmp eq i32 %7, 0
  %.1 = select i1 %.not43, i32 %spec.select, i32 512
  %8 = and i32 %2, 4
  %9 = and i32 %2, 5
  %10 = or disjoint i32 %9, %.1
  %or.cond57 = icmp eq i32 %10, 0
  br i1 %or.cond57, label %11, label %14

11:                                               ; preds = %3
  %12 = tail call ptr @__errno_location() #15
  store i32 95, ptr %12, align 4, !tbaa !27
  %13 = getelementptr inbounds nuw i8, ptr %0, i64 44
  store i32 -1, ptr %13, align 4, !tbaa !67
  br label %75

14:                                               ; preds = %3
  %15 = and i32 %2, 96
  %or.cond58.not = icmp eq i32 %15, 96
  %16 = lshr i32 %2, 6
  %17 = and i32 %16, 1
  %.2.v = select i1 %or.cond58.not, i32 2, i32 %17
  %.2 = or disjoint i32 %.1, %.2.v
  %18 = and i32 %2, 65536
  %.not49 = icmp eq i32 %18, 0
  %19 = or disjoint i32 %.2, 2304
  %spec.select60 = select i1 %.not49, i32 %.2, i32 %19
  %20 = and i32 %2, 128
  %.not50 = icmp eq i32 %20, 0
  %21 = and i32 %2, 160
  %or.cond61.not = icmp eq i32 %21, 160
  %22 = or i32 %spec.select60, 1026
  %23 = or i32 %spec.select60, 1025
  %spec.select62 = select i1 %.not50, i32 %spec.select60, i32 %23
  %.4 = select i1 %or.cond61.not, i32 %22, i32 %spec.select62
  br label %24

24:                                               ; preds = %28, %14
  %25 = load ptr, ptr %1, align 8, !tbaa !61
  %26 = tail call i32 (ptr, i32, ...) @open(ptr noundef %25, i32 noundef %.4, i32 noundef 384)
  %27 = icmp eq i32 %26, -1
  br i1 %27, label %28, label %.critedge

28:                                               ; preds = %24
  %29 = tail call ptr @__errno_location() #15
  %30 = load i32, ptr %29, align 4, !tbaa !27
  %31 = icmp eq i32 %30, 4
  br i1 %31, label %24, label %.critedge, !llvm.loop !68

.critedge:                                        ; preds = %24, %28
  %32 = icmp ne i32 %8, 0
  %33 = icmp slt i32 %26, 0
  %or.cond = and i1 %32, %33
  br i1 %or.cond, label %34, label %51

34:                                               ; preds = %.critedge
  %35 = and i32 %2, 256
  %.not52 = icmp eq i32 %35, 0
  br i1 %.not52, label %36, label %39

36:                                               ; preds = %34
  %37 = or i32 %.4, 64
  %38 = and i32 %2, 512
  %.not53 = icmp eq i32 %38, 0
  br i1 %.not53, label %41, label %39

39:                                               ; preds = %36, %34
  %40 = or i32 %.4, 192
  br label %41

41:                                               ; preds = %39, %36
  %.5 = phi i32 [ %40, %39 ], [ %37, %36 ]
  br label %42

42:                                               ; preds = %46, %41
  %43 = load ptr, ptr %1, align 8, !tbaa !61
  %44 = tail call i32 (ptr, i32, ...) @open(ptr noundef %43, i32 noundef %.5, i32 noundef 384)
  %45 = icmp eq i32 %44, -1
  br i1 %45, label %46, label %.critedge2

46:                                               ; preds = %42
  %47 = tail call ptr @__errno_location() #15
  %48 = load i32, ptr %47, align 4, !tbaa !27
  %49 = icmp eq i32 %48, 4
  br i1 %49, label %42, label %.thread, !llvm.loop !69

.critedge2:                                       ; preds = %42
  %50 = icmp sgt i32 %44, -1
  br i1 %50, label %.thread66, label %.thread

.thread66:                                        ; preds = %.critedge2
  store i8 1, ptr %5, align 8, !tbaa !66
  br label %56

51:                                               ; preds = %.critedge
  br i1 %33, label %.thread, label %56

.thread:                                          ; preds = %46, %.critedge2, %51
  %52 = tail call ptr @__errno_location() #15
  %53 = load i32, ptr %52, align 4, !tbaa !27
  %54 = tail call noundef i32 @_ZN4base4File18OSErrorToFileErrorEi(i32 noundef %53)
  %55 = getelementptr inbounds nuw i8, ptr %0, i64 44
  store i32 %54, ptr %55, align 4, !tbaa !67
  br label %75

56:                                               ; preds = %.thread66, %51
  %.068 = phi i32 [ %44, %.thread66 ], [ %26, %51 ]
  %57 = and i32 %2, 10
  %.not54 = icmp eq i32 %57, 0
  br i1 %.not54, label %59, label %58

58:                                               ; preds = %56
  store i8 1, ptr %5, align 8, !tbaa !66
  br label %59

59:                                               ; preds = %58, %56
  %60 = and i32 %2, 8192
  %.not55 = icmp eq i32 %60, 0
  br i1 %.not55, label %64, label %61

61:                                               ; preds = %59
  %62 = load ptr, ptr %1, align 8, !tbaa !61
  %63 = tail call i32 @unlink(ptr noundef %62) #14
  br label %64

64:                                               ; preds = %61, %59
  %65 = getelementptr inbounds nuw i8, ptr %0, i64 49
  %66 = lshr i32 %2, 10
  %67 = trunc i32 %66 to i8
  %68 = and i8 %67, 1
  store i8 %68, ptr %65, align 1, !tbaa !48
  %69 = getelementptr inbounds nuw i8, ptr %0, i64 44
  store i32 0, ptr %69, align 4, !tbaa !67
  %70 = load i32, ptr %0, align 8, !tbaa !24
  %.not.i = icmp eq i32 %70, -1
  br i1 %.not.i, label %_ZN4base13ScopedGenericIiNS_8internal19ScopedFDCloseTraitsEE5resetERKi.exit, label %71

71:                                               ; preds = %64
  %72 = icmp eq i32 %70, %.068
  br i1 %72, label %73, label %74

73:                                               ; preds = %71
  tail call void @abort() #17
  unreachable

74:                                               ; preds = %71
  tail call void @_ZN4base8internal19ScopedFDCloseTraits4FreeEi(i32 noundef %70)
  br label %_ZN4base13ScopedGenericIiNS_8internal19ScopedFDCloseTraitsEE5resetERKi.exit

_ZN4base13ScopedGenericIiNS_8internal19ScopedFDCloseTraitsEE5resetERKi.exit: ; preds = %64, %74
  store i32 %.068, ptr %0, align 8, !tbaa !24
  br label %75

75:                                               ; preds = %.thread, %_ZN4base13ScopedGenericIiNS_8internal19ScopedFDCloseTraitsEE5resetERKi.exit, %11
  ret void
}